target datalayout = "e-m:e-p270:32:32-p271:32:32-p272:64:64-i64:64-i128:128-f80:128-n8:16:32:64-S128"
target triple = "x86_64-unknown-linux-gnu"

@.str.1 = private unnamed_addr constant [9 x i8] c"exec-oob\00", align 1
@.str.2 = private unnamed_addr constant [8 x i8] c"execute\00", align 1

; Function Attrs: nounwind sspstrong uwtable
define dso_local zeroext i1 @qmp_is_oob(ptr noundef %dict) #0 {
entry:
  %dict.addr = alloca ptr, align 8
  store ptr %dict, ptr %dict.addr, align 8
  %0 = load ptr, ptr %dict.addr, align 8
  %call = call i32 @qdict_haskey(ptr noundef %0, ptr noundef @.str.1)
  %tobool = icmp ne i32 %call, 0
  br i1 %tobool, label %land.rhs, label %land.end

land.rhs:                                         ; preds = %entry
  %1 = load ptr, ptr %dict.addr, align 8
  %call1 = call i32 @qdict_haskey(ptr noundef %1, ptr noundef @.str.2)
  %tobool2 = icmp ne i32 %call1, 0
  %lnot = xor i1 %tobool2, true
  br label %land.end

land.end:                                         ; preds = %land.rhs, %entry
  %2 = phi i1 [ false, %entry ], [ %lnot, %land.rhs ]
  ret i1 %2
}