; Function Attrs: nounwind sspstrong uwtable
define dso_local zeroext i1 @qmp_is_oob(ptr noundef %dict) local_unnamed_addr #0 {
entry:
  %call = tail call i32 @qdict_haskey(ptr noundef %dict, ptr noundef nonnull @.str.1) #5
  %tobool.not = icmp eq i32 %call, 0
  br i1 %tobool.not, label %land.end, label %land.rhs

land.rhs:                                         ; preds = %entry
  %call1 = tail call i32 @qdict_haskey(ptr noundef %dict, ptr noundef nonnull @.str.2) #5
  %tobool2.not = icmp eq i32 %call1, 0
  br label %land.end

land.end:                                         ; preds = %land.rhs, %entry
  %0 = phi i1 [ false, %entry ], [ %tobool2.not, %land.rhs ]
  ret i1 %0
}